target datalayout = "e-m:e-p270:32:32-p271:32:32-p272:64:64-i64:64-i128:128-f80:128-n8:16:32:64-S128"
target triple = "x86_64-pc-linux-gnu"

%"class.pstd::optional" = type { %"union.std::aligned_storage<256, 8>::type", i8, [7 x i8] }
%"union.std::aligned_storage<256, 8>::type" = type { [256 x i8] }
%class.anon.6 = type { ptr, ptr }
%"class.pbrt::TaggedPointer" = type { i64 }

; Function Attrs: mustprogress nounwind uwtable
define linkonce_odr dso_local noundef i32 @_ZNK4pbrt13TaggedPointerIJNS_15SimplePrimitiveENS_18GeometricPrimitiveENS_20TransformedPrimitiveENS_17AnimatedPrimitiveENS_12BVHAggregateENS_15KdTreeAggregateEEE3TagEv(ptr noundef nonnull align 8 dereferenceable(8) %0) #8 comdat align 2 {
  %2 = alloca ptr, align 8
  store ptr %0, ptr %2, align 8, !tbaa !16
  %3 = load ptr, ptr %2, align 8
  %4 = getelementptr inbounds nuw %"class.pbrt::TaggedPointer", ptr %3, i32 0, i32 0
  %5 = load i64, ptr %4, align 8, !tbaa !132
  %6 = and i64 %5, -144115188075855872
  %7 = lshr i64 %6, 57
  %8 = trunc i64 %7 to i32
  ret i32 %8
}

; Function Attrs: mustprogress nounwind uwtable
define linkonce_odr dso_local noundef ptr @_ZNK4pbrt13TaggedPointerIJNS_15SimplePrimitiveENS_18GeometricPrimitiveENS_20TransformedPrimitiveENS_17AnimatedPrimitiveENS_12BVHAggregateENS_15KdTreeAggregateEEE3ptrEv(ptr noundef nonnull align 8 dereferenceable(8) %0) #8 comdat align 2 {
  %2 = alloca ptr, align 8
  store ptr %0, ptr %2, align 8, !tbaa !16
  %3 = load ptr, ptr %2, align 8
  %4 = getelementptr inbounds nuw %"class.pbrt::TaggedPointer", ptr %3, i32 0, i32 0
  %5 = load i64, ptr %4, align 8, !tbaa !132
  %6 = and i64 %5, 144115188075855871
  %7 = inttoptr i64 %6 to ptr
  ret ptr %7
}

; Function Attrs: mustprogress uwtable
define internal void @"_ZNK4pbrt13TaggedPointerIJNS_15SimplePrimitiveENS_18GeometricPrimitiveENS_20TransformedPrimitiveENS_17AnimatedPrimitiveENS_12BVHAggregateENS_15KdTreeAggregateEEE11DispatchCPUIRZNKS_9Primitive9IntersectERKNS_3RayEfE3$_0EEDcOT_"(ptr dead_on_unwind noalias writable sret(%"class.pstd::optional") align 8 %0, ptr noundef nonnull align 8 dereferenceable(8) %1, ptr noundef nonnull align 8 dereferenceable(16) %2) #1 align 2 {
  %4 = alloca ptr, align 8
  %5 = alloca ptr, align 8
  %6 = alloca ptr, align 8
  store ptr %0, ptr %4, align 8
  store ptr %1, ptr %5, align 8, !tbaa !16
  store ptr %2, ptr %6, align 8, !tbaa !13
  %7 = load ptr, ptr %5, align 8
  br label %8

8:                                                ; preds = %3
  br label %9

9:                                                ; preds = %8
  %10 = load ptr, ptr %6, align 8, !tbaa !13
  %11 = call noundef ptr @_ZNK4pbrt13TaggedPointerIJNS_15SimplePrimitiveENS_18GeometricPrimitiveENS_20TransformedPrimitiveENS_17AnimatedPrimitiveENS_12BVHAggregateENS_15KdTreeAggregateEEE3ptrEv(ptr noundef nonnull align 8 dereferenceable(8) %7)
  %12 = call noundef i32 @_ZNK4pbrt13TaggedPointerIJNS_15SimplePrimitiveENS_18GeometricPrimitiveENS_20TransformedPrimitiveENS_17AnimatedPrimitiveENS_12BVHAggregateENS_15KdTreeAggregateEEE3TagEv(ptr noundef nonnull align 8 dereferenceable(8) %7)
  %13 = sub i32 %12, 1
  call void @"_ZN4pbrt6detail11DispatchCPUIRZNKS_9Primitive9IntersectERKNS_3RayEfE3$_0N4pstd8optionalINS_17ShapeIntersectionEEENS_15SimplePrimitiveENS_18GeometricPrimitiveENS_20TransformedPrimitiveENS_17AnimatedPrimitiveENS_12BVHAggregateENS_15KdTreeAggregateEEEDaOT_PKvi"(ptr dead_on_unwind writable sret(%"class.pstd::optional") align 8 %0, ptr noundef nonnull align 8 dereferenceable(16) %10, ptr noundef %11, i32 noundef %13)
  ret void
}

; Function Attrs: mustprogress uwtable
define dso_local void @_ZNK4pbrt9Primitive9IntersectERKNS_3RayEf(ptr dead_on_unwind noalias writable sret(%"class.pstd::optional") align 8 %0, ptr noundef nonnull align 8 dereferenceable(8) %1, ptr noundef nonnull align 8 dereferenceable(40) %2, float noundef %3) #1 align 2 {
  %5 = alloca ptr, align 8
  %6 = alloca ptr, align 8
  %7 = alloca ptr, align 8
  %8 = alloca float, align 4
  %9 = alloca %class.anon.6, align 8
  store ptr %0, ptr %5, align 8
  store ptr %1, ptr %6, align 8, !tbaa !14
  store ptr %2, ptr %7, align 8, !tbaa !18
  store float %3, ptr %8, align 4, !tbaa !9
  %10 = load ptr, ptr %6, align 8
  call void @llvm.lifetime.start.p0(i64 16, ptr %9) #20
  %11 = getelementptr inbounds nuw %class.anon.6, ptr %9, i32 0, i32 0
  %12 = load ptr, ptr %7, align 8, !tbaa !18
  store ptr %12, ptr %11, align 8, !tbaa !18
  %13 = getelementptr inbounds nuw %class.anon.6, ptr %9, i32 0, i32 1
  store ptr %8, ptr %13, align 8, !tbaa !20
  call void @"_ZNK4pbrt13TaggedPointerIJNS_15SimplePrimitiveENS_18GeometricPrimitiveENS_20TransformedPrimitiveENS_17AnimatedPrimitiveENS_12BVHAggregateENS_15KdTreeAggregateEEE11DispatchCPUIRZNKS_9Primitive9IntersectERKNS_3RayEfE3$_0EEDcOT_"(ptr dead_on_unwind writable sret(%"class.pstd::optional") align 8 %0, ptr noundef nonnull align 8 dereferenceable(8) %10, ptr noundef nonnull align 8 dereferenceable(16) %9)
  call void @llvm.lifetime.end.p0(i64 16, ptr %9) #20
  ret void
}