; Function Attrs: mustprogress uwtable
define dso_local void @_ZNK4pbrt9Primitive9IntersectERKNS_3RayEf(ptr dead_on_unwind noalias writable sret(%"class.pstd::optional") align 8 %0, ptr noundef nonnull readonly align 8 captures(none) dereferenceable(8) %1, ptr noundef nonnull align 8 dereferenceable(40) %2, float noundef %3) local_unnamed_addr #2 align 2 {
  %5 = alloca float, align 4
  %6 = alloca %class.anon.6, align 8
  store float %3, ptr %5, align 4, !tbaa !12
  call void @llvm.lifetime.start.p0(i64 16, ptr nonnull %6) #24
  store ptr %2, ptr %6, align 8, !tbaa !14
  %7 = getelementptr inbounds nuw i8, ptr %6, i64 8
  store ptr %5, ptr %7, align 8, !tbaa !17
  %8 = load i64, ptr %1, align 8, !tbaa !4, !noalias !19
  %9 = and i64 %8, 144115188075855871
  %10 = inttoptr i64 %9 to ptr
  %11 = lshr i64 %8, 57
  %12 = trunc nuw nsw i64 %11 to i32
  %13 = add nsw i32 %12, -1
  call fastcc void @"_ZN4pbrt6detail11DispatchCPUIRZNKS_9Primitive9IntersectERKNS_3RayEfE3$_0N4pstd8optionalINS_17ShapeIntersectionEEENS_15SimplePrimitiveENS_18GeometricPrimitiveENS_20TransformedPrimitiveENS_17AnimatedPrimitiveENS_12BVHAggregateENS_15KdTreeAggregateEEEDaOT_PKvi"(ptr dead_on_unwind noalias writable align 8 %0, ptr noundef nonnull align 8 dereferenceable(16) %6, ptr noundef %10, i32 noundef %13)
  call void @llvm.lifetime.end.p0(i64 16, ptr nonnull %6) #24
  ret void
}